target datalayout = "e-m:e-p270:32:32-p271:32:32-p272:64:64-i64:64-i128:128-f80:128-n8:16:32:64-S128"
target triple = "x86_64-unknown-linux-gnu"

%"class.rocksdb::Status" = type { i8, i8, i8, i8, i8, i8, %"class.std::unique_ptr.5" }
%"class.std::unique_ptr.5" = type { %"struct.std::__uniq_ptr_data.6" }
%"struct.std::__uniq_ptr_data.6" = type { %"class.std::__uniq_ptr_impl.7" }
%"class.std::__uniq_ptr_impl.7" = type { %"class.std::tuple.8" }
%"class.std::tuple.8" = type { %"struct.std::_Tuple_impl.9" }
%"struct.std::_Tuple_impl.9" = type { %"struct.std::_Head_base.12" }
%"struct.std::_Head_base.12" = type { ptr }
%"struct.rocksdb::RangePtr" = type { ptr, ptr }

; Function Attrs: mustprogress nounwind uwtable
define linkonce_odr noundef ptr @_ZN7rocksdb22static_cast_with_checkINS_6DBImplENS_2DBEEEPT_PT0_(ptr noundef %x) #1 comdat {
entry:
  %x.addr = alloca ptr, align 8
  %ret = alloca ptr, align 8
  store ptr %x, ptr %x.addr, align 8
  %0 = load ptr, ptr %x.addr, align 8
  store ptr %0, ptr %ret, align 8
  %1 = load ptr, ptr %ret, align 8
  ret ptr %1
}

; Function Attrs: mustprogress uwtable
define void @_ZN7rocksdb19DeleteFilesInRangesEPNS_2DBEPNS_18ColumnFamilyHandleEPKNS_8RangePtrEmb(ptr noalias sret(%"class.rocksdb::Status") align 8 %agg.result, ptr noundef %db, ptr noundef %column_family, ptr noundef %ranges, i64 noundef %n, i1 noundef zeroext %include_end) #0 {
entry:
  %result.ptr = alloca ptr, align 8
  %db.addr = alloca ptr, align 8
  %column_family.addr = alloca ptr, align 8
  %ranges.addr = alloca ptr, align 8
  %n.addr = alloca i64, align 8
  %include_end.addr = alloca i8, align 1
  store ptr %agg.result, ptr %result.ptr, align 8
  store ptr %db, ptr %db.addr, align 8
  store ptr %column_family, ptr %column_family.addr, align 8
  store ptr %ranges, ptr %ranges.addr, align 8
  store i64 %n, ptr %n.addr, align 8
  %frombool = zext i1 %include_end to i8
  store i8 %frombool, ptr %include_end.addr, align 1
  %0 = load ptr, ptr %db.addr, align 8
  %vtable = load ptr, ptr %0, align 8
  %vfn = getelementptr inbounds ptr, ptr %vtable, i64 147
  %1 = load ptr, ptr %vfn, align 8
  %call = call noundef ptr %1(ptr noundef nonnull align 8 dereferenceable(8) %0)
  %call1 = call noundef ptr @_ZN7rocksdb22static_cast_with_checkINS_6DBImplENS_2DBEEEPT_PT0_(ptr noundef %call)
  %2 = load ptr, ptr %column_family.addr, align 8
  %3 = load ptr, ptr %ranges.addr, align 8
  %4 = load i64, ptr %n.addr, align 8
  %5 = load i8, ptr %include_end.addr, align 1
  %tobool = trunc i8 %5 to i1
  call void @_ZN7rocksdb6DBImpl19DeleteFilesInRangesEPNS_18ColumnFamilyHandleEPKNS_8RangePtrEmb(ptr sret(%"class.rocksdb::Status") align 8 %agg.result, ptr noundef nonnull align 64 dereferenceable(6660) %call1, ptr noundef %2, ptr noundef %3, i64 noundef %4, i1 noundef zeroext %tobool)
  ret void
}

; Function Attrs: mustprogress nounwind uwtable
define linkonce_odr void @_ZN7rocksdb8RangePtrC2EPKNS_5SliceES3_(ptr noundef nonnull align 8 dereferenceable(16) %this, ptr noundef %s, ptr noundef %l) unnamed_addr #1 comdat align 2 {
entry:
  %this.addr = alloca ptr, align 8
  %s.addr = alloca ptr, align 8
  %l.addr = alloca ptr, align 8
  store ptr %this, ptr %this.addr, align 8
  store ptr %s, ptr %s.addr, align 8
  store ptr %l, ptr %l.addr, align 8
  %this1 = load ptr, ptr %this.addr, align 8
  %start = getelementptr inbounds %"struct.rocksdb::RangePtr", ptr %this1, i32 0, i32 0
  %0 = load ptr, ptr %s.addr, align 8
  store ptr %0, ptr %start, align 8
  %limit = getelementptr inbounds %"struct.rocksdb::RangePtr", ptr %this1, i32 0, i32 1
  %1 = load ptr, ptr %l.addr, align 8
  store ptr %1, ptr %limit, align 8
  ret void
}

; Function Attrs: mustprogress uwtable
define void @_ZN7rocksdb18DeleteFilesInRangeEPNS_2DBEPNS_18ColumnFamilyHandleEPKNS_5SliceES6_b(ptr noalias sret(%"class.rocksdb::Status") align 8 %agg.result, ptr noundef %db, ptr noundef %column_family, ptr noundef %begin, ptr noundef %end, i1 noundef zeroext %include_end) #0 {
entry:
  %result.ptr = alloca ptr, align 8
  %db.addr = alloca ptr, align 8
  %column_family.addr = alloca ptr, align 8
  %begin.addr = alloca ptr, align 8
  %end.addr = alloca ptr, align 8
  %include_end.addr = alloca i8, align 1
  %range = alloca %"struct.rocksdb::RangePtr", align 8
  store ptr %agg.result, ptr %result.ptr, align 8
  store ptr %db, ptr %db.addr, align 8
  store ptr %column_family, ptr %column_family.addr, align 8
  store ptr %begin, ptr %begin.addr, align 8
  store ptr %end, ptr %end.addr, align 8
  %frombool = zext i1 %include_end to i8
  store i8 %frombool, ptr %include_end.addr, align 1
  %0 = load ptr, ptr %begin.addr, align 8
  %1 = load ptr, ptr %end.addr, align 8
  call void @_ZN7rocksdb8RangePtrC2EPKNS_5SliceES3_(ptr noundef nonnull align 8 dereferenceable(16) %range, ptr noundef %0, ptr noundef %1)
  %2 = load ptr, ptr %db.addr, align 8
  %3 = load ptr, ptr %column_family.addr, align 8
  %4 = load i8, ptr %include_end.addr, align 1
  %tobool = trunc i8 %4 to i1
  call void @_ZN7rocksdb19DeleteFilesInRangesEPNS_2DBEPNS_18ColumnFamilyHandleEPKNS_8RangePtrEmb(ptr sret(%"class.rocksdb::Status") align 8 %agg.result, ptr noundef %2, ptr noundef %3, ptr noundef %range, i64 noundef 1, i1 noundef zeroext %tobool)
  ret void
}