; Function Attrs: mustprogress uwtable
define void @_ZN7rocksdb18DeleteFilesInRangeEPNS_2DBEPNS_18ColumnFamilyHandleEPKNS_5SliceES6_b(ptr noalias sret(%"class.rocksdb::Status") align 8 %agg.result, ptr noundef %db, ptr noundef %column_family, ptr noundef %begin, ptr noundef %end, i1 noundef zeroext %include_end) local_unnamed_addr #3 {
entry:
  %range = alloca %"struct.rocksdb::RangePtr", align 8
  store ptr %begin, ptr %range, align 8
  %limit.i = getelementptr inbounds i8, ptr %range, i64 8
  store ptr %end, ptr %limit.i, align 8
  %vtable.i = load ptr, ptr %db, align 8, !noalias !4
  %vfn.i = getelementptr inbounds i8, ptr %vtable.i, i64 1176
  %0 = load ptr, ptr %vfn.i, align 8, !noalias !4
  %call.i = tail call noundef ptr %0(ptr noundef nonnull align 8 dereferenceable(8) %db), !noalias !4
  call void @_ZN7rocksdb6DBImpl19DeleteFilesInRangesEPNS_18ColumnFamilyHandleEPKNS_8RangePtrEmb(ptr sret(%"class.rocksdb::Status") align 8 %agg.result, ptr noundef nonnull align 64 dereferenceable(6660) %call.i, ptr noundef %column_family, ptr noundef nonnull %range, i64 noundef 1, i1 noundef zeroext %include_end)
  ret void
}